target datalayout = "e-m:e-p270:32:32-p271:32:32-p272:64:64-i64:64-i128:128-f80:128-n8:16:32:64-S128"
target triple = "x86_64-unknown-linux-gnu"

@.str = private unnamed_addr constant [3 x i8] c"rb\00", align 1
@.str.1 = private unnamed_addr constant [4 x i8] c"r+b\00", align 1
@.str.2 = private unnamed_addr constant [3 x i8] c"wb\00", align 1

; Function Attrs: mustprogress uwtable
define hidden noundef ptr @_ZN6Assimp14IOSystem2Unzip4openEPvPKci(ptr noundef %opaque, ptr noundef %filename, i32 noundef %mode) #2 align 2 {
entry:
  %opaque.addr = alloca ptr, align 8
  %filename.addr = alloca ptr, align 8
  %mode.addr = alloca i32, align 4
  %io_system = alloca ptr, align 8
  %mode_fopen = alloca ptr, align 8
  store ptr %opaque, ptr %opaque.addr, align 8
  store ptr %filename, ptr %filename.addr, align 8
  store i32 %mode, ptr %mode.addr, align 4
  %0 = load ptr, ptr %opaque.addr, align 8
  store ptr %0, ptr %io_system, align 8
  store ptr null, ptr %mode_fopen, align 8
  %1 = load i32, ptr %mode.addr, align 4
  %and = and i32 %1, 3
  %cmp = icmp eq i32 %and, 1
  br i1 %cmp, label %if.then, label %if.else

if.then:                                          ; preds = %entry
  store ptr @.str, ptr %mode_fopen, align 8
  br label %if.end8

if.else:                                          ; preds = %entry
  %2 = load i32, ptr %mode.addr, align 4
  %and1 = and i32 %2, 4
  %tobool = icmp ne i32 %and1, 0
  br i1 %tobool, label %if.then2, label %if.else3

if.then2:                                         ; preds = %if.else
  store ptr @.str.1, ptr %mode_fopen, align 8
  br label %if.end7

if.else3:                                         ; preds = %if.else
  %3 = load i32, ptr %mode.addr, align 4
  %and4 = and i32 %3, 8
  %tobool5 = icmp ne i32 %and4, 0
  br i1 %tobool5, label %if.then6, label %if.end

if.then6:                                         ; preds = %if.else3
  store ptr @.str.2, ptr %mode_fopen, align 8
  br label %if.end

if.end:                                           ; preds = %if.then6, %if.else3
  br label %if.end7

if.end7:                                          ; preds = %if.end, %if.then2
  br label %if.end8

if.end8:                                          ; preds = %if.end7, %if.then
  %4 = load ptr, ptr %io_system, align 8
  %5 = load ptr, ptr %filename.addr, align 8
  %6 = load ptr, ptr %mode_fopen, align 8
  %vtable = load ptr, ptr %4, align 8
  %vfn = getelementptr inbounds ptr, ptr %vtable, i64 4
  %7 = load ptr, ptr %vfn, align 8
  %call = call noundef ptr %7(ptr noundef nonnull align 8 dereferenceable(32) %4, ptr noundef %5, ptr noundef %6)
  ret ptr %call
}