; Function Attrs: mustprogress uwtable
define hidden noundef ptr @_ZN6Assimp14IOSystem2Unzip4openEPvPKci(ptr noundef %opaque, ptr noundef %filename, i32 noundef %mode) #2 align 2 {
entry:
  %and = and i32 %mode, 3
  %cmp = icmp eq i32 %and, 1
  br i1 %cmp, label %if.end8, label %if.else

if.else:                                          ; preds = %entry
  %and1 = and i32 %mode, 4
  %tobool.not = icmp eq i32 %and1, 0
  br i1 %tobool.not, label %if.else3, label %if.end8

if.else3:                                         ; preds = %if.else
  %and4 = and i32 %mode, 8
  %tobool5.not = icmp eq i32 %and4, 0
  %spec.select = select i1 %tobool5.not, ptr null, ptr @.str.2
  br label %if.end8

if.end8:                                          ; preds = %if.else3, %if.else, %entry
  %mode_fopen.0 = phi ptr [ @.str, %entry ], [ @.str.1, %if.else ], [ %spec.select, %if.else3 ]
  %vtable = load ptr, ptr %opaque, align 8
  %vfn = getelementptr inbounds i8, ptr %vtable, i64 32
  %0 = load ptr, ptr %vfn, align 8
  %call = tail call noundef ptr %0(ptr noundef nonnull align 8 dereferenceable(32) %opaque, ptr noundef %filename, ptr noundef %mode_fopen.0)
  ret ptr %call
}